; Function Attrs: nounwind uwtable
define void @Cba_ManWriteBlifArray(ptr noundef captures(none) %0, ptr noundef captures(none) %1, ptr noundef readonly captures(none) %2) local_unnamed_addr #0 {
  %4 = getelementptr i8, ptr %2, i64 4
  %.val9 = load i32, ptr %4, align 4, !tbaa !18
  %5 = icmp sgt i32 %.val9, 0
  br i1 %5, label %.lr.ph, label %.critedge

.lr.ph:                                           ; preds = %3
  %6 = getelementptr i8, ptr %2, i64 8
  %7 = getelementptr inbounds nuw i8, ptr %1, i64 200
  %8 = getelementptr inbounds nuw i8, ptr %1, i64 204
  %9 = getelementptr i8, ptr %1, i64 208
  br label %10

10:                                               ; preds = %.lr.ph, %Cba_ObjNameStr.exit
  %indvars.iv = phi i64 [ 0, %.lr.ph ], [ %indvars.iv.next, %Cba_ObjNameStr.exit ]
  %.val8 = load ptr, ptr %6, align 8, !tbaa !19
  %11 = getelementptr inbounds nuw i32, ptr %.val8, i64 %indvars.iv
  %12 = load i32, ptr %11, align 4, !tbaa !20
  %13 = add nsw i32 %12, 1
  %14 = load i32, ptr %8, align 4, !tbaa !18
  %.not.i.not.i.i.i = icmp slt i32 %12, %14
  br i1 %.not.i.not.i.i.i, label %Cba_ObjNameStr.exit, label %15

15:                                               ; preds = %10
  %16 = load i32, ptr %7, align 8, !tbaa !33
  %17 = shl nsw i32 %16, 1
  %.not.i.i.i = icmp slt i32 %12, %17
  %.not.i.i.not.i.i.i = icmp sgt i32 %16, %12
  br i1 %.not.i.i.i, label %27, label %18

18:                                               ; preds = %15
  br i1 %.not.i.i.not.i.i.i, label %Vec_IntGrow.exit.i.i.i.i, label %19

19:                                               ; preds = %18
  %20 = load ptr, ptr %9, align 8, !tbaa !19
  %.not9.i.i.i.i.i = icmp eq ptr %20, null
  %21 = sext i32 %13 to i64
  %22 = shl nsw i64 %21, 2
  br i1 %.not9.i.i.i.i.i, label %25, label %23

23:                                               ; preds = %19
  %24 = tail call ptr @realloc(ptr noundef nonnull %20, i64 noundef %22) #8
  br label %Vec_IntGrow.exit.sink.split.i.i.i.i

25:                                               ; preds = %19
  %26 = tail call noalias ptr @malloc(i64 noundef %22) #9
  br label %Vec_IntGrow.exit.sink.split.i.i.i.i

27:                                               ; preds = %15
  br i1 %.not.i.i.not.i.i.i, label %Vec_IntGrow.exit.i.i.i.i, label %28

28:                                               ; preds = %27
  %29 = load ptr, ptr %9, align 8, !tbaa !19
  %.not9.i21.i.i.i.i = icmp eq ptr %29, null
  %30 = sext i32 %17 to i64
  %31 = shl nsw i64 %30, 2
  br i1 %.not9.i21.i.i.i.i, label %34, label %32

32:                                               ; preds = %28
  %33 = tail call ptr @realloc(ptr noundef nonnull %29, i64 noundef %31) #8
  br label %Vec_IntGrow.exit.sink.split.i.i.i.i

34:                                               ; preds = %28
  %35 = tail call noalias ptr @malloc(i64 noundef %31) #9
  br label %Vec_IntGrow.exit.sink.split.i.i.i.i

Vec_IntGrow.exit.sink.split.i.i.i.i:              ; preds = %32, %34, %23, %25
  %storemerge = phi ptr [ %24, %23 ], [ %26, %25 ], [ %33, %32 ], [ %35, %34 ]
  %.sink.i.i.i.i = phi i32 [ %13, %23 ], [ %13, %25 ], [ %17, %32 ], [ %17, %34 ]
  store ptr %storemerge, ptr %9, align 8, !tbaa !19
  store i32 %.sink.i.i.i.i, ptr %7, align 8, !tbaa !33
  %.pre.i.i.i = load i32, ptr %8, align 4, !tbaa !18
  br label %Vec_IntGrow.exit.i.i.i.i

Vec_IntGrow.exit.i.i.i.i:                         ; preds = %Vec_IntGrow.exit.sink.split.i.i.i.i, %27, %18
  %36 = phi i32 [ %.pre.i.i.i, %Vec_IntGrow.exit.sink.split.i.i.i.i ], [ %14, %27 ], [ %14, %18 ]
  %.not3.i.i.i = icmp sgt i32 %36, %12
  br i1 %.not3.i.i.i, label %._crit_edge.i.i.i.i, label %.lr.ph.i.i.i.i

.lr.ph.i.i.i.i:                                   ; preds = %Vec_IntGrow.exit.i.i.i.i
  %37 = load ptr, ptr %9, align 8, !tbaa !19
  %38 = sext i32 %36 to i64
  %39 = shl nsw i64 %38, 2
  %scevgep.i.i.i.i = getelementptr i8, ptr %37, i64 %39
  %40 = sub i32 %12, %36
  %41 = zext i32 %40 to i64
  %42 = shl nuw nsw i64 %41, 2
  %43 = add nuw nsw i64 %42, 4
  tail call void @llvm.memset.p0.i64(ptr noundef nonnull align 4 dereferenceable(1) %scevgep.i.i.i.i, i8 0, i64 %43, i1 false), !tbaa !20
  br label %._crit_edge.i.i.i.i

._crit_edge.i.i.i.i:                              ; preds = %.lr.ph.i.i.i.i, %Vec_IntGrow.exit.i.i.i.i
  store i32 %13, ptr %8, align 4, !tbaa !18
  br label %Cba_ObjNameStr.exit

Cba_ObjNameStr.exit:                              ; preds = %10, %._crit_edge.i.i.i.i
  %.val.i.i.i = load ptr, ptr %9, align 8, !tbaa !19
  %44 = sext i32 %12 to i64
  %45 = getelementptr inbounds i32, ptr %.val.i.i.i, i64 %44
  %46 = load i32, ptr %45, align 4, !tbaa !20
  %.val.i = load ptr, ptr %1, align 8, !tbaa !34
  %47 = getelementptr i8, ptr %.val.i, i64 16
  %.val.val.i = load ptr, ptr %47, align 8, !tbaa !39
  %48 = tail call ptr @Abc_NamStr(ptr noundef %.val.val.i, i32 noundef %46) #7
  %49 = tail call i32 (ptr, ptr, ...) @fprintf(ptr noundef %0, ptr noundef nonnull @.str.4, ptr noundef %48) #7
  %indvars.iv.next = add nuw nsw i64 %indvars.iv, 1
  %.val = load i32, ptr %4, align 4, !tbaa !18
  %50 = sext i32 %.val to i64
  %51 = icmp slt i64 %indvars.iv.next, %50
  br i1 %51, label %10, label %.critedge, !llvm.loop !49

.critedge:                                        ; preds = %Cba_ObjNameStr.exit, %3
  %fputc = tail call i32 @fputc(i32 10, ptr %0)
  ret void
}